target datalayout = "e-m:e-p270:32:32-p271:32:32-p272:64:64-i64:64-i128:128-f80:128-n8:16:32:64-S128"
target triple = "x86_64-unknown-linux-gnu"

%"class.std::__shared_count" = type { ptr }
%"class.facebook::velox::exec::EvalCtx" = type { ptr, ptr, ptr, i8, i8, %"class.std::vector", %"class.std::shared_ptr", i8, i8, i8, ptr, %"class.std::shared_ptr.0" }
%"class.std::vector" = type { %"struct.std::_Vector_base" }
%"struct.std::_Vector_base" = type { %"struct.std::_Vector_base<std::shared_ptr<facebook::velox::BaseVector>, std::allocator<std::shared_ptr<facebook::velox::BaseVector>>>::_Vector_impl" }
%"struct.std::_Vector_base<std::shared_ptr<facebook::velox::BaseVector>, std::allocator<std::shared_ptr<facebook::velox::BaseVector>>>::_Vector_impl" = type { %"struct.std::_Vector_base<std::shared_ptr<facebook::velox::BaseVector>, std::allocator<std::shared_ptr<facebook::velox::BaseVector>>>::_Vector_impl_data" }
%"struct.std::_Vector_base<std::shared_ptr<facebook::velox::BaseVector>, std::allocator<std::shared_ptr<facebook::velox::BaseVector>>>::_Vector_impl_data" = type { ptr, ptr, ptr }
%"class.std::shared_ptr" = type { %"class.std::__shared_ptr" }
%"class.std::__shared_ptr" = type { ptr, %"class.std::__shared_count" }
%"class.std::shared_ptr.0" = type { %"class.std::__shared_ptr.1" }
%"class.std::__shared_ptr.1" = type { ptr, %"class.std::__shared_count" }
%"class.facebook::velox::core::ExecCtx" = type { ptr, ptr, i8, %"class.std::vector.3", %"class.std::vector.8", %"class.std::unique_ptr" }
%"class.std::vector.3" = type { %"struct.std::_Vector_base.4" }
%"struct.std::_Vector_base.4" = type { %"struct.std::_Vector_base<std::unique_ptr<facebook::velox::DecodedVector>, std::allocator<std::unique_ptr<facebook::velox::DecodedVector>>>::_Vector_impl" }
%"struct.std::_Vector_base<std::unique_ptr<facebook::velox::DecodedVector>, std::allocator<std::unique_ptr<facebook::velox::DecodedVector>>>::_Vector_impl" = type { %"struct.std::_Vector_base<std::unique_ptr<facebook::velox::DecodedVector>, std::allocator<std::unique_ptr<facebook::velox::DecodedVector>>>::_Vector_impl_data" }
%"struct.std::_Vector_base<std::unique_ptr<facebook::velox::DecodedVector>, std::allocator<std::unique_ptr<facebook::velox::DecodedVector>>>::_Vector_impl_data" = type { ptr, ptr, ptr }
%"class.std::vector.8" = type { %"struct.std::_Vector_base.9" }
%"struct.std::_Vector_base.9" = type { %"struct.std::_Vector_base<std::unique_ptr<facebook::velox::SelectivityVector>, std::allocator<std::unique_ptr<facebook::velox::SelectivityVector>>>::_Vector_impl" }
%"struct.std::_Vector_base<std::unique_ptr<facebook::velox::SelectivityVector>, std::allocator<std::unique_ptr<facebook::velox::SelectivityVector>>>::_Vector_impl" = type { %"struct.std::_Vector_base<std::unique_ptr<facebook::velox::SelectivityVector>, std::allocator<std::unique_ptr<facebook::velox::SelectivityVector>>>::_Vector_impl_data" }
%"struct.std::_Vector_base<std::unique_ptr<facebook::velox::SelectivityVector>, std::allocator<std::unique_ptr<facebook::velox::SelectivityVector>>>::_Vector_impl_data" = type { ptr, ptr, ptr }
%"class.std::unique_ptr" = type { %"struct.std::__uniq_ptr_data" }
%"struct.std::__uniq_ptr_data" = type { %"class.std::__uniq_ptr_impl" }
%"class.std::__uniq_ptr_impl" = type { %"class.std::tuple" }
%"class.std::tuple" = type { %"struct.std::_Tuple_impl" }
%"struct.std::_Tuple_impl" = type { %"struct.std::_Head_base.14" }
%"struct.std::_Head_base.14" = type { ptr }

; Function Attrs: mustprogress nounwind uwtable
define linkonce_odr void @_ZNSt15__new_allocatorISt10shared_ptrIN8facebook5velox10BaseVectorEEEC2Ev(ptr noundef nonnull align 1 dereferenceable(1) %this) unnamed_addr #1 comdat align 2 {
entry:
  %this.addr = alloca ptr, align 8
  store ptr %this, ptr %this.addr, align 8
  ret void
}

; Function Attrs: mustprogress nounwind uwtable
define linkonce_odr void @_ZNSt12_Vector_baseISt10shared_ptrIN8facebook5velox10BaseVectorEESaIS4_EE17_Vector_impl_dataC2Ev(ptr noundef nonnull align 8 dereferenceable(24) %this) unnamed_addr #1 comdat align 2 {
entry:
  %this.addr = alloca ptr, align 8
  store ptr %this, ptr %this.addr, align 8
  %this1 = load ptr, ptr %this.addr, align 8
  %_M_start = getelementptr inbounds %"struct.std::_Vector_base<std::shared_ptr<facebook::velox::BaseVector>, std::allocator<std::shared_ptr<facebook::velox::BaseVector>>>::_Vector_impl_data", ptr %this1, i32 0, i32 0
  store ptr null, ptr %_M_start, align 8
  %_M_finish = getelementptr inbounds %"struct.std::_Vector_base<std::shared_ptr<facebook::velox::BaseVector>, std::allocator<std::shared_ptr<facebook::velox::BaseVector>>>::_Vector_impl_data", ptr %this1, i32 0, i32 1
  store ptr null, ptr %_M_finish, align 8
  %_M_end_of_storage = getelementptr inbounds %"struct.std::_Vector_base<std::shared_ptr<facebook::velox::BaseVector>, std::allocator<std::shared_ptr<facebook::velox::BaseVector>>>::_Vector_impl_data", ptr %this1, i32 0, i32 2
  store ptr null, ptr %_M_end_of_storage, align 8
  ret void
}

; Function Attrs: mustprogress nounwind uwtable
define linkonce_odr void @_ZNSaISt10shared_ptrIN8facebook5velox10BaseVectorEEEC2Ev(ptr noundef nonnull align 1 dereferenceable(1) %this) unnamed_addr #1 comdat align 2 {
entry:
  %this.addr = alloca ptr, align 8
  store ptr %this, ptr %this.addr, align 8
  %this1 = load ptr, ptr %this.addr, align 8
  call void @_ZNSt15__new_allocatorISt10shared_ptrIN8facebook5velox10BaseVectorEEEC2Ev(ptr noundef nonnull align 1 dereferenceable(1) %this1) #16
  ret void
}

; Function Attrs: mustprogress nounwind uwtable
define linkonce_odr void @_ZNSt14__shared_countILN9__gnu_cxx12_Lock_policyE2EEC2Ev(ptr noundef nonnull align 8 dereferenceable(8) %this) unnamed_addr #1 comdat align 2 {
entry:
  %this.addr = alloca ptr, align 8
  store ptr %this, ptr %this.addr, align 8
  %this1 = load ptr, ptr %this.addr, align 8
  %_M_pi = getelementptr inbounds %"class.std::__shared_count", ptr %this1, i32 0, i32 0
  store ptr null, ptr %_M_pi, align 8
  ret void
}

; Function Attrs: mustprogress nounwind uwtable
define linkonce_odr void @_ZNSt12_Vector_baseISt10shared_ptrIN8facebook5velox10BaseVectorEESaIS4_EE12_Vector_implC2Ev(ptr noundef nonnull align 8 dereferenceable(24) %this) unnamed_addr #1 comdat align 2 {
entry:
  %this.addr = alloca ptr, align 8
  store ptr %this, ptr %this.addr, align 8
  %this1 = load ptr, ptr %this.addr, align 8
  call void @_ZNSaISt10shared_ptrIN8facebook5velox10BaseVectorEEEC2Ev(ptr noundef nonnull align 1 dereferenceable(1) %this1) #16
  call void @_ZNSt12_Vector_baseISt10shared_ptrIN8facebook5velox10BaseVectorEESaIS4_EE17_Vector_impl_dataC2Ev(ptr noundef nonnull align 8 dereferenceable(24) %this1) #16
  ret void
}

; Function Attrs: mustprogress nounwind uwtable
define linkonce_odr void @_ZNSt12__shared_ptrIN8facebook5velox10FlatVectorISt10shared_ptrIvEEELN9__gnu_cxx12_Lock_policyE2EEC2Ev(ptr noundef nonnull align 8 dereferenceable(16) %this) unnamed_addr #1 comdat align 2 {
entry:
  %this.addr = alloca ptr, align 8
  store ptr %this, ptr %this.addr, align 8
  %this1 = load ptr, ptr %this.addr, align 8
  %_M_ptr = getelementptr inbounds %"class.std::__shared_ptr.1", ptr %this1, i32 0, i32 0
  store ptr null, ptr %_M_ptr, align 8
  %_M_refcount = getelementptr inbounds %"class.std::__shared_ptr.1", ptr %this1, i32 0, i32 1
  call void @_ZNSt14__shared_countILN9__gnu_cxx12_Lock_policyE2EEC2Ev(ptr noundef nonnull align 8 dereferenceable(8) %_M_refcount) #16
  ret void
}

; Function Attrs: mustprogress nounwind uwtable
define linkonce_odr void @_ZNSt12__shared_ptrIN8facebook5velox4exec14PeeledEncodingELN9__gnu_cxx12_Lock_policyE2EEC2Ev(ptr noundef nonnull align 8 dereferenceable(16) %this) unnamed_addr #1 comdat align 2 {
entry:
  %this.addr = alloca ptr, align 8
  store ptr %this, ptr %this.addr, align 8
  %this1 = load ptr, ptr %this.addr, align 8
  %_M_ptr = getelementptr inbounds %"class.std::__shared_ptr", ptr %this1, i32 0, i32 0
  store ptr null, ptr %_M_ptr, align 8
  %_M_refcount = getelementptr inbounds %"class.std::__shared_ptr", ptr %this1, i32 0, i32 1
  call void @_ZNSt14__shared_countILN9__gnu_cxx12_Lock_policyE2EEC2Ev(ptr noundef nonnull align 8 dereferenceable(8) %_M_refcount) #16
  ret void
}

; Function Attrs: mustprogress nounwind uwtable
define linkonce_odr void @_ZNSt12_Vector_baseISt10shared_ptrIN8facebook5velox10BaseVectorEESaIS4_EEC2Ev(ptr noundef nonnull align 8 dereferenceable(24) %this) unnamed_addr #1 comdat align 2 {
entry:
  %this.addr = alloca ptr, align 8
  store ptr %this, ptr %this.addr, align 8
  %this1 = load ptr, ptr %this.addr, align 8
  %_M_impl = getelementptr inbounds %"struct.std::_Vector_base", ptr %this1, i32 0, i32 0
  call void @_ZNSt12_Vector_baseISt10shared_ptrIN8facebook5velox10BaseVectorEESaIS4_EE12_Vector_implC2Ev(ptr noundef nonnull align 8 dereferenceable(24) %_M_impl) #16
  ret void
}

; Function Attrs: mustprogress nounwind uwtable
define linkonce_odr void @_ZNSt10shared_ptrIN8facebook5velox10FlatVectorIS_IvEEEEC2Ev(ptr noundef nonnull align 8 dereferenceable(16) %this) unnamed_addr #1 comdat align 2 {
entry:
  %this.addr = alloca ptr, align 8
  store ptr %this, ptr %this.addr, align 8
  %this1 = load ptr, ptr %this.addr, align 8
  call void @_ZNSt12__shared_ptrIN8facebook5velox10FlatVectorISt10shared_ptrIvEEELN9__gnu_cxx12_Lock_policyE2EEC2Ev(ptr noundef nonnull align 8 dereferenceable(16) %this1) #16
  ret void
}

; Function Attrs: mustprogress nounwind uwtable
define linkonce_odr void @_ZNSt10shared_ptrIN8facebook5velox4exec14PeeledEncodingEEC2Ev(ptr noundef nonnull align 8 dereferenceable(16) %this) unnamed_addr #1 comdat align 2 {
entry:
  %this.addr = alloca ptr, align 8
  store ptr %this, ptr %this.addr, align 8
  %this1 = load ptr, ptr %this.addr, align 8
  call void @_ZNSt12__shared_ptrIN8facebook5velox4exec14PeeledEncodingELN9__gnu_cxx12_Lock_policyE2EEC2Ev(ptr noundef nonnull align 8 dereferenceable(16) %this1) #16
  ret void
}

; Function Attrs: mustprogress nounwind uwtable
define linkonce_odr void @_ZNSt6vectorISt10shared_ptrIN8facebook5velox10BaseVectorEESaIS4_EEC2Ev(ptr noundef nonnull align 8 dereferenceable(24) %this) unnamed_addr #1 comdat align 2 {
entry:
  %this.addr = alloca ptr, align 8
  store ptr %this, ptr %this.addr, align 8
  %this1 = load ptr, ptr %this.addr, align 8
  call void @_ZNSt12_Vector_baseISt10shared_ptrIN8facebook5velox10BaseVectorEESaIS4_EEC2Ev(ptr noundef nonnull align 8 dereferenceable(24) %this1) #16
  ret void
}

; Function Attrs: mustprogress nounwind uwtable
define linkonce_odr noundef zeroext i1 @_ZNK8facebook5velox4core7ExecCtx20exprEvalCacheEnabledEv(ptr noundef nonnull align 8 dereferenceable(80) %this) #1 comdat align 2 {
entry:
  %this.addr = alloca ptr, align 8
  store ptr %this, ptr %this.addr, align 8
  %this1 = load ptr, ptr %this.addr, align 8
  %exprEvalCacheEnabled_ = getelementptr inbounds %"class.facebook::velox::core::ExecCtx", ptr %this1, i32 0, i32 2
  %0 = load i8, ptr %exprEvalCacheEnabled_, align 8
  %tobool = trunc i8 %0 to i1
  ret i1 %tobool
}

; Function Attrs: mustprogress uwtable
define void @_ZN8facebook5velox4exec7EvalCtxC2EPNS0_4core7ExecCtxE(ptr noundef nonnull align 8 dereferenceable(104) %this, ptr noundef %execCtx) unnamed_addr #0 align 2 {
entry:
  %this.addr = alloca ptr, align 8
  %execCtx.addr = alloca ptr, align 8
  store ptr %this, ptr %this.addr, align 8
  store ptr %execCtx, ptr %execCtx.addr, align 8
  %this1 = load ptr, ptr %this.addr, align 8
  %execCtx_ = getelementptr inbounds %"class.facebook::velox::exec::EvalCtx", ptr %this1, i32 0, i32 0
  %0 = load ptr, ptr %execCtx.addr, align 8
  store ptr %0, ptr %execCtx_, align 8
  %exprSet_ = getelementptr inbounds %"class.facebook::velox::exec::EvalCtx", ptr %this1, i32 0, i32 1
  store ptr null, ptr %exprSet_, align 8
  %row_ = getelementptr inbounds %"class.facebook::velox::exec::EvalCtx", ptr %this1, i32 0, i32 2
  store ptr null, ptr %row_, align 8
  %cacheEnabled_ = getelementptr inbounds %"class.facebook::velox::exec::EvalCtx", ptr %this1, i32 0, i32 3
  %1 = load ptr, ptr %execCtx.addr, align 8
  %call = call noundef zeroext i1 @_ZNK8facebook5velox4core7ExecCtx20exprEvalCacheEnabledEv(ptr noundef nonnull align 8 dereferenceable(80) %1)
  %frombool = zext i1 %call to i8
  store i8 %frombool, ptr %cacheEnabled_, align 8
  %peeledFields_ = getelementptr inbounds %"class.facebook::velox::exec::EvalCtx", ptr %this1, i32 0, i32 5
  call void @_ZNSt6vectorISt10shared_ptrIN8facebook5velox10BaseVectorEESaIS4_EEC2Ev(ptr noundef nonnull align 8 dereferenceable(24) %peeledFields_) #16
  %peeledEncoding_ = getelementptr inbounds %"class.facebook::velox::exec::EvalCtx", ptr %this1, i32 0, i32 6
  call void @_ZNSt10shared_ptrIN8facebook5velox4exec14PeeledEncodingEEC2Ev(ptr noundef nonnull align 8 dereferenceable(16) %peeledEncoding_) #16
  %nullsPruned_ = getelementptr inbounds %"class.facebook::velox::exec::EvalCtx", ptr %this1, i32 0, i32 7
  store i8 0, ptr %nullsPruned_, align 8
  %throwOnError_ = getelementptr inbounds %"class.facebook::velox::exec::EvalCtx", ptr %this1, i32 0, i32 8
  store i8 1, ptr %throwOnError_, align 1
  %isFinalSelection_ = getelementptr inbounds %"class.facebook::velox::exec::EvalCtx", ptr %this1, i32 0, i32 9
  store i8 1, ptr %isFinalSelection_, align 2
  %errors_ = getelementptr inbounds %"class.facebook::velox::exec::EvalCtx", ptr %this1, i32 0, i32 11
  call void @_ZNSt10shared_ptrIN8facebook5velox10FlatVectorIS_IvEEEEC2Ev(ptr noundef nonnull align 8 dereferenceable(16) %errors_) #16
  %2 = load ptr, ptr %execCtx.addr, align 8
  %cmp = icmp ne ptr %2, null
  %lnot = xor i1 %cmp, true
  br i1 %lnot, label %if.then, label %if.end

if.then:                                          ; preds = %entry
  call void @llvm.trap()
  br label %if.end

if.end:                                           ; preds = %if.then, %entry
  ret void
}