; Function Attrs: mustprogress nofree norecurse nosync nounwind willreturn memory(argmem: readwrite) uwtable
define void @_ZN8facebook5velox4exec7EvalCtxC2EPNS0_4core7ExecCtxE(ptr nocapture noundef nonnull writeonly align 8 dereferenceable(104) %this, ptr noundef %execCtx) unnamed_addr #3 align 2 {
entry:
  store ptr %execCtx, ptr %this, align 8
  %exprSet_ = getelementptr inbounds i8, ptr %this, i64 8
  %cacheEnabled_ = getelementptr inbounds i8, ptr %this, i64 24
  %exprEvalCacheEnabled_.i = getelementptr inbounds i8, ptr %execCtx, i64 16
  tail call void @llvm.memset.p0.i64(ptr noundef nonnull align 8 dereferenceable(16) %exprSet_, i8 0, i64 16, i1 false)
  %0 = load i8, ptr %exprEvalCacheEnabled_.i, align 8
  %1 = and i8 %0, 1
  store i8 %1, ptr %cacheEnabled_, align 8
  %peeledFields_ = getelementptr inbounds i8, ptr %this, i64 32
  %throwOnError_ = getelementptr inbounds i8, ptr %this, i64 73
  tail call void @llvm.memset.p0.i64(ptr noundef nonnull align 8 dereferenceable(41) %peeledFields_, i8 0, i64 41, i1 false)
  store i8 1, ptr %throwOnError_, align 1
  %isFinalSelection_ = getelementptr inbounds i8, ptr %this, i64 74
  store i8 1, ptr %isFinalSelection_, align 2
  %errors_ = getelementptr inbounds i8, ptr %this, i64 88
  tail call void @llvm.memset.p0.i64(ptr noundef nonnull align 8 dereferenceable(16) %errors_, i8 0, i64 16, i1 false)
  ret void
}